; Function Attrs: nofree norecurse nosync nounwind memory(argmem: readwrite) uwtable
define internal void @put_vp8_epel8_h4_c(ptr noundef writeonly captures(none) %0, i64 noundef %1, ptr noundef readonly captures(none) %2, i64 noundef %3, i32 noundef %4, i32 noundef %5, i32 %6) #1 {
  %8 = icmp sgt i32 %4, 0
  br i1 %8, label %.preheader.lr.ph, label %._crit_edge

.preheader.lr.ph:                                 ; preds = %7
  %9 = add nsw i32 %5, -1
  %10 = sext i32 %9 to i64
  %11 = getelementptr inbounds [7 x [6 x i8]], ptr @subpel_filters, i64 0, i64 %10
  %12 = getelementptr inbounds nuw i8, ptr %11, i64 2
  %13 = load i8, ptr %12, align 2, !tbaa !10
  %14 = zext i8 %13 to i32
  %15 = getelementptr inbounds nuw i8, ptr %11, i64 1
  %16 = load i8, ptr %15, align 1, !tbaa !10
  %17 = zext i8 %16 to i32
  %18 = getelementptr inbounds nuw i8, ptr %11, i64 3
  %19 = load i8, ptr %18, align 1, !tbaa !10
  %20 = zext i8 %19 to i32
  %21 = getelementptr inbounds nuw i8, ptr %11, i64 4
  %22 = load i8, ptr %21, align 2, !tbaa !10
  %23 = zext i8 %22 to i32
  br label %.preheader

.preheader:                                       ; preds = %.preheader.lr.ph, %50
  %.033 = phi i32 [ 0, %.preheader.lr.ph ], [ %53, %50 ]
  %.02532 = phi ptr [ %0, %.preheader.lr.ph ], [ %51, %50 ]
  %.02631 = phi ptr [ %2, %.preheader.lr.ph ], [ %52, %50 ]
  br label %24

24:                                               ; preds = %.preheader, %24
  %indvars.iv = phi i64 [ 0, %.preheader ], [ %indvars.iv.next, %24 ]
  %25 = getelementptr inbounds nuw i8, ptr %.02631, i64 %indvars.iv
  %26 = load i8, ptr %25, align 1, !tbaa !10
  %27 = zext i8 %26 to i32
  %28 = mul nuw nsw i32 %27, %14
  %29 = getelementptr i8, ptr %25, i64 -1
  %30 = load i8, ptr %29, align 1, !tbaa !10
  %31 = zext i8 %30 to i32
  %indvars.iv.next = add nuw nsw i64 %indvars.iv, 1
  %32 = getelementptr inbounds nuw i8, ptr %.02631, i64 %indvars.iv.next
  %33 = load i8, ptr %32, align 1, !tbaa !10
  %34 = zext i8 %33 to i32
  %35 = mul nuw nsw i32 %34, %20
  %36 = getelementptr inbounds nuw i8, ptr %25, i64 2
  %37 = load i8, ptr %36, align 1, !tbaa !10
  %38 = zext i8 %37 to i32
  %39 = mul nuw nsw i32 %17, %31
  %40 = mul nuw nsw i32 %23, %38
  %41 = add nuw nsw i32 %40, %39
  %42 = add nuw nsw i32 %28, 64
  %43 = add nuw nsw i32 %42, %35
  %44 = sub nsw i32 %43, %41
  %45 = ashr i32 %44, 7
  %46 = sext i32 %45 to i64
  %47 = getelementptr inbounds i8, ptr getelementptr inbounds nuw (i8, ptr @ff_crop_tab, i64 1024), i64 %46
  %48 = load i8, ptr %47, align 1, !tbaa !10
  %49 = getelementptr inbounds nuw i8, ptr %.02532, i64 %indvars.iv
  store i8 %48, ptr %49, align 1, !tbaa !10
  %exitcond.not = icmp eq i64 %indvars.iv.next, 8
  br i1 %exitcond.not, label %50, label %24, !llvm.loop !36

50:                                               ; preds = %24
  %51 = getelementptr inbounds i8, ptr %.02532, i64 %1
  %52 = getelementptr inbounds i8, ptr %.02631, i64 %3
  %53 = add nuw nsw i32 %.033, 1
  %exitcond35.not = icmp eq i32 %53, %4
  br i1 %exitcond35.not, label %._crit_edge, label %.preheader, !llvm.loop !37

._crit_edge:                                      ; preds = %50, %7
  ret void
}